target datalayout = "e-m:e-p270:32:32-p271:32:32-p272:64:64-i64:64-i128:128-f80:128-n8:16:32:64-S128"
target triple = "x86_64-pc-linux-gnu"

%struct.lean_object = type { i32, i32 }

@l_Lean_Meta_Grind_Solve_stepGuard___lambda__1___closed__1 = internal global ptr null, align 8
@l_Lean_Meta_Grind_Solve_applyTac___closed__1 = internal global ptr null, align 8
@l_Lean_Meta_Grind_Solve_applyTac___closed__2 = internal global ptr null, align 8
@l_Lean_Meta_Grind_Solve_tryAssertNext___closed__1 = internal global ptr null, align 8
@l_Lean_Meta_Grind_Solve_tryEmatch___closed__1 = internal global ptr null, align 8
@l_Lean_Meta_Grind_Solve_trySplit___closed__1 = internal global ptr null, align 8
@l_Lean_Meta_Grind_Solve_tryArith___closed__1 = internal global ptr null, align 8
@l_Lean_Meta_Grind_Solve_tryLookahead___closed__1 = internal global ptr null, align 8
@l_Lean_Meta_Grind_Solve_tryMBTC___closed__1 = internal global ptr null, align 8
@l_Lean_Loop_forIn_loop___at_Lean_Meta_Grind_Solve_main___spec__2___lambda__5___closed__1 = internal global ptr null, align 8
@l_Lean_Loop_forIn_loop___at_Lean_Meta_Grind_Solve_main___spec__2___lambda__12___closed__3 = internal global ptr null, align 8
@l_Lean_Loop_forIn_loop___at_Lean_Meta_Grind_Solve_main___spec__2___lambda__12___closed__2 = internal global ptr null, align 8
@l_Lean_Meta_Grind_Solve_main___closed__1 = internal global ptr null, align 8
@_G_initialized = internal global i8 0, align 1
@l_Lean_Loop_forIn_loop___at_Lean_Meta_Grind_Solve_main___spec__2___lambda__12___closed__1 = internal global ptr null, align 8

; Function Attrs: inlinehint nounwind uwtable
define internal zeroext i8 @lean_ptr_tag(ptr noundef %0) #4 {
  %2 = alloca ptr, align 8
  store ptr %0, ptr %2, align 8, !tbaa !4
  %3 = load ptr, ptr %2, align 8, !tbaa !4
  %4 = getelementptr inbounds nuw %struct.lean_object, ptr %3, i32 0, i32 1
  %5 = load i32, ptr %4, align 4
  %6 = lshr i32 %5, 24
  %7 = trunc i32 %6 to i8
  ret i8 %7
}

; Function Attrs: alwaysinline nounwind uwtable
define internal void @lean_dec_ref(ptr noundef %0) #0 {
  %2 = alloca ptr, align 8
  store ptr %0, ptr %2, align 8, !tbaa !4
  %3 = load ptr, ptr %2, align 8, !tbaa !4
  %4 = getelementptr inbounds nuw %struct.lean_object, ptr %3, i32 0, i32 0
  %5 = load i32, ptr %4, align 4, !tbaa !11
  %6 = icmp sgt i32 %5, 1
  %7 = zext i1 %6 to i32
  %8 = sext i32 %7 to i64
  %9 = call i64 @llvm.expect.i64(i64 %8, i64 1)
  %10 = icmp ne i64 %9, 0
  br i1 %10, label %11, label %16

11:                                               ; preds = %1
  %12 = load ptr, ptr %2, align 8, !tbaa !4
  %13 = getelementptr inbounds nuw %struct.lean_object, ptr %12, i32 0, i32 0
  %14 = load i32, ptr %13, align 4, !tbaa !11
  %15 = add i32 %14, -1
  store i32 %15, ptr %13, align 4, !tbaa !11
  br label %24

16:                                               ; preds = %1
  %17 = load ptr, ptr %2, align 8, !tbaa !4
  %18 = getelementptr inbounds nuw %struct.lean_object, ptr %17, i32 0, i32 0
  %19 = load i32, ptr %18, align 4, !tbaa !11
  %20 = icmp ne i32 %19, 0
  br i1 %20, label %21, label %23

21:                                               ; preds = %16
  %22 = load ptr, ptr %2, align 8, !tbaa !4
  call void @lean_dec_ref_cold(ptr noundef %22)
  br label %23

23:                                               ; preds = %21, %16
  br label %24

24:                                               ; preds = %23, %11
  ret void
}

; Function Attrs: inlinehint nounwind uwtable
define internal zeroext i1 @lean_io_result_is_error(ptr noundef %0) #4 {
  %2 = alloca ptr, align 8
  store ptr %0, ptr %2, align 8, !tbaa !4
  %3 = load ptr, ptr %2, align 8, !tbaa !4
  %4 = call zeroext i8 @lean_ptr_tag(ptr noundef %3)
  %5 = zext i8 %4 to i32
  %6 = icmp eq i32 %5, 1
  ret i1 %6
}

; Function Attrs: inlinehint nounwind uwtable
define internal ptr @lean_io_mk_world() #4 {
  %1 = call ptr @lean_box(i64 noundef 0)
  ret ptr %1
}

; Function Attrs: inlinehint nounwind uwtable
define internal ptr @lean_box(i64 noundef %0) #4 {
  %2 = alloca i64, align 8
  store i64 %0, ptr %2, align 8, !tbaa !13
  %3 = load i64, ptr %2, align 8, !tbaa !13
  %4 = shl i64 %3, 1
  %5 = or i64 %4, 1
  %6 = inttoptr i64 %5 to ptr
  ret ptr %6
}

; Function Attrs: nounwind uwtable
define ptr @initialize_Lean_Meta_Tactic_Grind_Solve(i8 noundef zeroext %0, ptr noundef %1) #1 {
  %3 = alloca ptr, align 8
  %4 = alloca i8, align 1
  %5 = alloca ptr, align 8
  %6 = alloca ptr, align 8
  %7 = alloca i32, align 4
  store i8 %0, ptr %4, align 1, !tbaa !8
  store ptr %1, ptr %5, align 8, !tbaa !4
  call void @llvm.lifetime.start.p0(i64 8, ptr %6) #7
  %8 = load i8, ptr @_G_initialized, align 1, !tbaa !19, !range !21, !noundef !22
  %9 = trunc i8 %8 to i1
  br i1 %9, label %10, label %13

10:                                               ; preds = %2
  %11 = call ptr @lean_box(i64 noundef 0)
  %12 = call ptr @lean_io_result_mk_ok(ptr noundef %11)
  store ptr %12, ptr %3, align 8
  store i32 1, ptr %7, align 4
  br label %89

13:                                               ; preds = %2
  store i8 1, ptr @_G_initialized, align 1, !tbaa !19
  %14 = load i8, ptr %4, align 1, !tbaa !8
  %15 = call ptr @lean_io_mk_world()
  %16 = call ptr @initialize_Lean_Meta_Tactic_Grind_Combinators(i8 noundef zeroext %14, ptr noundef %15)
  store ptr %16, ptr %6, align 8, !tbaa !4
  %17 = load ptr, ptr %6, align 8, !tbaa !4
  %18 = call zeroext i1 @lean_io_result_is_error(ptr noundef %17)
  br i1 %18, label %19, label %21

19:                                               ; preds = %13
  %20 = load ptr, ptr %6, align 8, !tbaa !4
  store ptr %20, ptr %3, align 8
  store i32 1, ptr %7, align 4
  br label %89

21:                                               ; preds = %13
  %22 = load ptr, ptr %6, align 8, !tbaa !4
  call void @lean_dec_ref(ptr noundef %22)
  %23 = load i8, ptr %4, align 1, !tbaa !8
  %24 = call ptr @lean_io_mk_world()
  %25 = call ptr @initialize_Lean_Meta_Tactic_Grind_Split(i8 noundef zeroext %23, ptr noundef %24)
  store ptr %25, ptr %6, align 8, !tbaa !4
  %26 = load ptr, ptr %6, align 8, !tbaa !4
  %27 = call zeroext i1 @lean_io_result_is_error(ptr noundef %26)
  br i1 %27, label %28, label %30

28:                                               ; preds = %21
  %29 = load ptr, ptr %6, align 8, !tbaa !4
  store ptr %29, ptr %3, align 8
  store i32 1, ptr %7, align 4
  br label %89

30:                                               ; preds = %21
  %31 = load ptr, ptr %6, align 8, !tbaa !4
  call void @lean_dec_ref(ptr noundef %31)
  %32 = load i8, ptr %4, align 1, !tbaa !8
  %33 = call ptr @lean_io_mk_world()
  %34 = call ptr @initialize_Lean_Meta_Tactic_Grind_EMatch(i8 noundef zeroext %32, ptr noundef %33)
  store ptr %34, ptr %6, align 8, !tbaa !4
  %35 = load ptr, ptr %6, align 8, !tbaa !4
  %36 = call zeroext i1 @lean_io_result_is_error(ptr noundef %35)
  br i1 %36, label %37, label %39

37:                                               ; preds = %30
  %38 = load ptr, ptr %6, align 8, !tbaa !4
  store ptr %38, ptr %3, align 8
  store i32 1, ptr %7, align 4
  br label %89

39:                                               ; preds = %30
  %40 = load ptr, ptr %6, align 8, !tbaa !4
  call void @lean_dec_ref(ptr noundef %40)
  %41 = load i8, ptr %4, align 1, !tbaa !8
  %42 = call ptr @lean_io_mk_world()
  %43 = call ptr @initialize_Lean_Meta_Tactic_Grind_Arith(i8 noundef zeroext %41, ptr noundef %42)
  store ptr %43, ptr %6, align 8, !tbaa !4
  %44 = load ptr, ptr %6, align 8, !tbaa !4
  %45 = call zeroext i1 @lean_io_result_is_error(ptr noundef %44)
  br i1 %45, label %46, label %48

46:                                               ; preds = %39
  %47 = load ptr, ptr %6, align 8, !tbaa !4
  store ptr %47, ptr %3, align 8
  store i32 1, ptr %7, align 4
  br label %89

48:                                               ; preds = %39
  %49 = load ptr, ptr %6, align 8, !tbaa !4
  call void @lean_dec_ref(ptr noundef %49)
  %50 = load i8, ptr %4, align 1, !tbaa !8
  %51 = call ptr @lean_io_mk_world()
  %52 = call ptr @initialize_Lean_Meta_Tactic_Grind_Lookahead(i8 noundef zeroext %50, ptr noundef %51)
  store ptr %52, ptr %6, align 8, !tbaa !4
  %53 = load ptr, ptr %6, align 8, !tbaa !4
  %54 = call zeroext i1 @lean_io_result_is_error(ptr noundef %53)
  br i1 %54, label %55, label %57

55:                                               ; preds = %48
  %56 = load ptr, ptr %6, align 8, !tbaa !4
  store ptr %56, ptr %3, align 8
  store i32 1, ptr %7, align 4
  br label %89

57:                                               ; preds = %48
  %58 = load ptr, ptr %6, align 8, !tbaa !4
  call void @lean_dec_ref(ptr noundef %58)
  %59 = call ptr @_init_l_Lean_Meta_Grind_Solve_stepGuard___lambda__1___closed__1()
  store ptr %59, ptr @l_Lean_Meta_Grind_Solve_stepGuard___lambda__1___closed__1, align 8, !tbaa !4
  %60 = load ptr, ptr @l_Lean_Meta_Grind_Solve_stepGuard___lambda__1___closed__1, align 8, !tbaa !4
  call void @lean_mark_persistent(ptr noundef %60)
  %61 = call ptr @_init_l_Lean_Meta_Grind_Solve_applyTac___closed__1()
  store ptr %61, ptr @l_Lean_Meta_Grind_Solve_applyTac___closed__1, align 8, !tbaa !4
  %62 = load ptr, ptr @l_Lean_Meta_Grind_Solve_applyTac___closed__1, align 8, !tbaa !4
  call void @lean_mark_persistent(ptr noundef %62)
  %63 = call ptr @_init_l_Lean_Meta_Grind_Solve_applyTac___closed__2()
  store ptr %63, ptr @l_Lean_Meta_Grind_Solve_applyTac___closed__2, align 8, !tbaa !4
  %64 = load ptr, ptr @l_Lean_Meta_Grind_Solve_applyTac___closed__2, align 8, !tbaa !4
  call void @lean_mark_persistent(ptr noundef %64)
  %65 = call ptr @_init_l_Lean_Meta_Grind_Solve_tryAssertNext___closed__1()
  store ptr %65, ptr @l_Lean_Meta_Grind_Solve_tryAssertNext___closed__1, align 8, !tbaa !4
  %66 = load ptr, ptr @l_Lean_Meta_Grind_Solve_tryAssertNext___closed__1, align 8, !tbaa !4
  call void @lean_mark_persistent(ptr noundef %66)
  %67 = call ptr @_init_l_Lean_Meta_Grind_Solve_tryEmatch___closed__1()
  store ptr %67, ptr @l_Lean_Meta_Grind_Solve_tryEmatch___closed__1, align 8, !tbaa !4
  %68 = load ptr, ptr @l_Lean_Meta_Grind_Solve_tryEmatch___closed__1, align 8, !tbaa !4
  call void @lean_mark_persistent(ptr noundef %68)
  %69 = call ptr @_init_l_Lean_Meta_Grind_Solve_trySplit___closed__1()
  store ptr %69, ptr @l_Lean_Meta_Grind_Solve_trySplit___closed__1, align 8, !tbaa !4
  %70 = load ptr, ptr @l_Lean_Meta_Grind_Solve_trySplit___closed__1, align 8, !tbaa !4
  call void @lean_mark_persistent(ptr noundef %70)
  %71 = call ptr @_init_l_Lean_Meta_Grind_Solve_tryArith___closed__1()
  store ptr %71, ptr @l_Lean_Meta_Grind_Solve_tryArith___closed__1, align 8, !tbaa !4
  %72 = load ptr, ptr @l_Lean_Meta_Grind_Solve_tryArith___closed__1, align 8, !tbaa !4
  call void @lean_mark_persistent(ptr noundef %72)
  %73 = call ptr @_init_l_Lean_Meta_Grind_Solve_tryLookahead___closed__1()
  store ptr %73, ptr @l_Lean_Meta_Grind_Solve_tryLookahead___closed__1, align 8, !tbaa !4
  %74 = load ptr, ptr @l_Lean_Meta_Grind_Solve_tryLookahead___closed__1, align 8, !tbaa !4
  call void @lean_mark_persistent(ptr noundef %74)
  %75 = call ptr @_init_l_Lean_Meta_Grind_Solve_tryMBTC___closed__1()
  store ptr %75, ptr @l_Lean_Meta_Grind_Solve_tryMBTC___closed__1, align 8, !tbaa !4
  %76 = load ptr, ptr @l_Lean_Meta_Grind_Solve_tryMBTC___closed__1, align 8, !tbaa !4
  call void @lean_mark_persistent(ptr noundef %76)
  %77 = call ptr @_init_l_Lean_Loop_forIn_loop___at_Lean_Meta_Grind_Solve_main___spec__2___lambda__5___closed__1()
  store ptr %77, ptr @l_Lean_Loop_forIn_loop___at_Lean_Meta_Grind_Solve_main___spec__2___lambda__5___closed__1, align 8, !tbaa !4
  %78 = load ptr, ptr @l_Lean_Loop_forIn_loop___at_Lean_Meta_Grind_Solve_main___spec__2___lambda__5___closed__1, align 8, !tbaa !4
  call void @lean_mark_persistent(ptr noundef %78)
  %79 = call ptr @_init_l_Lean_Loop_forIn_loop___at_Lean_Meta_Grind_Solve_main___spec__2___lambda__12___closed__1()
  store ptr %79, ptr @l_Lean_Loop_forIn_loop___at_Lean_Meta_Grind_Solve_main___spec__2___lambda__12___closed__1, align 8, !tbaa !4
  %80 = load ptr, ptr @l_Lean_Loop_forIn_loop___at_Lean_Meta_Grind_Solve_main___spec__2___lambda__12___closed__1, align 8, !tbaa !4
  call void @lean_mark_persistent(ptr noundef %80)
  %81 = call ptr @_init_l_Lean_Loop_forIn_loop___at_Lean_Meta_Grind_Solve_main___spec__2___lambda__12___closed__2()
  store ptr %81, ptr @l_Lean_Loop_forIn_loop___at_Lean_Meta_Grind_Solve_main___spec__2___lambda__12___closed__2, align 8, !tbaa !4
  %82 = load ptr, ptr @l_Lean_Loop_forIn_loop___at_Lean_Meta_Grind_Solve_main___spec__2___lambda__12___closed__2, align 8, !tbaa !4
  call void @lean_mark_persistent(ptr noundef %82)
  %83 = call ptr @_init_l_Lean_Loop_forIn_loop___at_Lean_Meta_Grind_Solve_main___spec__2___lambda__12___closed__3()
  store ptr %83, ptr @l_Lean_Loop_forIn_loop___at_Lean_Meta_Grind_Solve_main___spec__2___lambda__12___closed__3, align 8, !tbaa !4
  %84 = load ptr, ptr @l_Lean_Loop_forIn_loop___at_Lean_Meta_Grind_Solve_main___spec__2___lambda__12___closed__3, align 8, !tbaa !4
  call void @lean_mark_persistent(ptr noundef %84)
  %85 = call ptr @_init_l_Lean_Meta_Grind_Solve_main___closed__1()
  store ptr %85, ptr @l_Lean_Meta_Grind_Solve_main___closed__1, align 8, !tbaa !4
  %86 = load ptr, ptr @l_Lean_Meta_Grind_Solve_main___closed__1, align 8, !tbaa !4
  call void @lean_mark_persistent(ptr noundef %86)
  %87 = call ptr @lean_box(i64 noundef 0)
  %88 = call ptr @lean_io_result_mk_ok(ptr noundef %87)
  store ptr %88, ptr %3, align 8
  store i32 1, ptr %7, align 4
  br label %89

89:                                               ; preds = %57, %55, %46, %37, %28, %19, %10
  call void @llvm.lifetime.end.p0(i64 8, ptr %6) #7
  %90 = load ptr, ptr %3, align 8
  ret ptr %90
}